; Function Attrs: nounwind uwtable
define hidden range(i32 0, 2) i32 @_glfwFramebufferTransparentX11(ptr noundef readonly captures(none) %0) local_unnamed_addr #0 {
  %2 = getelementptr inbounds nuw i8, ptr %0, i64 1284
  %3 = load i32, ptr %2, align 4, !tbaa !200
  %.not = icmp eq i32 %3, 0
  br i1 %.not, label %11, label %4

4:                                                ; preds = %1
  %5 = load ptr, ptr getelementptr inbounds nuw (i8, ptr @_glfw, i64 141640), align 8, !tbaa !356
  %6 = load ptr, ptr getelementptr inbounds nuw (i8, ptr @_glfw, i64 137840), align 8, !tbaa !93
  %7 = load i64, ptr getelementptr inbounds nuw (i8, ptr @_glfw, i64 141096), align 8, !tbaa !357
  %8 = tail call i64 %5(ptr noundef %6, i64 noundef %7) #17
  %9 = icmp ne i64 %8, 0
  %10 = zext i1 %9 to i32
  br label %11

11:                                               ; preds = %1, %4
  %.0 = phi i32 [ %10, %4 ], [ 0, %1 ]
  ret i32 %.0
}